	.file	"experiments.c"
	.text
.Ltext0:
	.section	.rodata.str1.8,"aMS",@progbits,1
	.align 8
.LC0:
	.string	"ERROR; return code from pthread_create() is %d\n"
	.text
	.p2align 4,,15
	.globl	e4_pthread_main1
	.type	e4_pthread_main1, @function
e4_pthread_main1:
.LFB29:
	.file 1 "experiments.c"
	.loc 1 265 0
	.cfi_startproc
.LVL0:
	pushq	%rbp
.LCFI0:
	.cfi_def_cfa_offset 16
	.cfi_offset 6, -16
	pushq	%rbx
.LCFI1:
	.cfi_def_cfa_offset 24
	.cfi_offset 3, -24
	movq	%rdi, %rbx
.LBB16:
.LBB17:
	.loc 1 314 0
	movl	$84, %edi
.LVL1:
.LBE17:
.LBE16:
	.loc 1 265 0
	subq	$136, %rsp
.LCFI2:
	.cfi_def_cfa_offset 160
.LBB23:
.LBB21:
	.loc 1 314 0
	call	sysconf
.LVL2:
	.loc 1 315 0
	testl	%eax, %eax
	jg	.L23
.LVL3:
.L2:
.LBE21:
.LBE23:
	.loc 1 270 0
	movl	$mut, %edi
	call	pthread_mutex_lock
.LVL4:
	.loc 1 272 0
	xorl	%esi, %esi
	movq	%rbx, %rcx
	movl	$e4_pthread_main2, %edx
	movl	$thread2, %edi
	call	pthread_create
.LVL5:
	.loc 1 273 0
	testl	%eax, %eax
	.loc 1 272 0
	movl	%eax, rc(%rip)
	.loc 1 273 0
	jne	.L3
.LVL6:
	.loc 1 280 0 discriminator 1
	movl	4(%rbx), %esi
	testl	%esi, %esi
	jle	.L5
	movq	8(%rbx), %r8
	.loc 1 265 0
	movq	%r8, %rcx
	movq	%r8, %rdx
	salq	$60, %rcx
	shrq	$63, %rcx
	cmpl	%ecx, %esi
	cmovb	%esi, %ecx
	cmpl	$6, %esi
	cmovbe	%esi, %ecx
	xorl	%eax, %eax
	testl	%ecx, %ecx
	je	.L7
.LVL7:
	.p2align 4,,10
	.p2align 3
.L8:
	.loc 1 280 0
	addl	$1, %eax
.LVL8:
	.loc 1 281 0
	movq	$3, (%rdx)
	addq	$8, %rdx
	cmpl	%ecx, %eax
	jb	.L8
	cmpl	%ecx, %esi
	je	.L5
.LVL9:
.L7:
	movl	%esi, %r10d
	movl	%ecx, %edx
	subl	%ecx, %r10d
	movl	%r10d, %edi
	shrl	%edi
	movl	%edi, %r9d
	addl	%r9d, %r9d
	je	.L10
	movdqa	.LC1(%rip), %xmm0
	leaq	(%r8,%rdx,8), %rcx
	.loc 1 265 0
	xorl	%edx, %edx
	.p2align 4,,10
	.p2align 3
.L11:
	addl	$1, %edx
	.loc 1 281 0 discriminator 2
	movdqa	%xmm0, (%rcx)
	addq	$16, %rcx
	cmpl	%edi, %edx
	jb	.L11
	addl	%r9d, %eax
	cmpl	%r9d, %r10d
	je	.L5
.L10:
	.loc 1 265 0
	movslq	%eax, %rdx
	leaq	(%r8,%rdx,8), %rdx
	.p2align 4,,10
	.p2align 3
.L13:
	.loc 1 280 0
	addl	$1, %eax
.LVL10:
	.loc 1 281 0
	movq	$3, (%rdx)
	addq	$8, %rdx
	.loc 1 280 0
	cmpl	%eax, %esi
	jg	.L13
.LVL11:
.L5:
	.loc 1 284 0
	movl	$mut, %edi
	call	pthread_mutex_unlock
.LVL12:
	.loc 1 287 0
	addq	$136, %rsp
.LCFI3:
	.cfi_remember_state
	.cfi_def_cfa_offset 24
	movl	$1, %eax
	popq	%rbx
.LCFI4:
	.cfi_def_cfa_offset 16
.LVL13:
	popq	%rbp
.LCFI5:
	.cfi_def_cfa_offset 8
	ret
.LVL14:
	.p2align 4,,10
	.p2align 3
.L23:
.LCFI6:
	.cfi_restore_state
.LBB24:
.LBB22:
.LBB18:
.LBB19:
	.loc 1 319 0
	xorl	%eax, %eax
.LVL15:
	movq	%rsp, %rdi
	movl	$16, %ecx
	rep stosq
.LVL16:
.LBB20:
	.loc 1 320 0
	movq	$1, (%rsp)
.LBE20:
	.loc 1 322 0
	call	pthread_self
.LVL17:
	.loc 1 323 0
	movq	%rsp, %rdx
	movl	$128, %esi
	movq	%rax, %rdi
	call	pthread_setaffinity_np
.LVL18:
	jmp	.L2
.LVL19:
.L3:
.LBE19:
.LBE18:
.LBE22:
.LBE24:
	.loc 1 274 0
	movl	%eax, %esi
	movl	$.LC0, %edi
	xorl	%eax, %eax
	call	printf
.LVL20:
	.loc 1 275 0
	movl	$-1, %edi
	call	exit
.LVL21:
	.cfi_endproc
.LFE29:
	.size	e4_pthread_main1, .-e4_pthread_main1
	.p2align 4,,15
	.globl	e3_pthread_main1
	.type	e3_pthread_main1, @function
e3_pthread_main1:
.LFB26:
	.loc 1 179 0
	.cfi_startproc
.LVL22:
	pushq	%rbp
.LCFI7:
	.cfi_def_cfa_offset 16
	.cfi_offset 6, -16
	pushq	%rbx
.LCFI8:
	.cfi_def_cfa_offset 24
	.cfi_offset 3, -24
	movq	%rdi, %rbx
.LBB30:
.LBB31:
	.loc 1 314 0
	movl	$84, %edi
.LVL23:
.LBE31:
.LBE30:
	.loc 1 179 0
	subq	$136, %rsp
.LCFI9:
	.cfi_def_cfa_offset 160
.LBB37:
.LBB35:
	.loc 1 314 0
	call	sysconf
.LVL24:
	.loc 1 315 0
	testl	%eax, %eax
	jg	.L45
.LVL25:
.L25:
.LBE35:
.LBE37:
	.loc 1 184 0
	movl	$mut, %edi
	call	pthread_mutex_lock
.LVL26:
	.loc 1 186 0
	xorl	%esi, %esi
	movq	%rbx, %rcx
	movl	$e3_pthread_main2, %edx
	movl	$thread2, %edi
	call	pthread_create
.LVL27:
	.loc 1 187 0
	testl	%eax, %eax
	.loc 1 186 0
	movl	%eax, rc(%rip)
	.loc 1 187 0
	jne	.L26
.LVL28:
	.loc 1 194 0 discriminator 1
	movl	4(%rbx), %esi
	testl	%esi, %esi
	jle	.L28
	movq	8(%rbx), %r8
	.loc 1 179 0
	movq	%r8, %rcx
	movq	%r8, %rdx
	salq	$60, %rcx
	shrq	$63, %rcx
	cmpl	%ecx, %esi
	cmovb	%esi, %ecx
	cmpl	$6, %esi
	cmovbe	%esi, %ecx
	xorl	%eax, %eax
	testl	%ecx, %ecx
	je	.L30
.LVL29:
	.p2align 4,,10
	.p2align 3
.L31:
	.loc 1 194 0
	addl	$1, %eax
.LVL30:
	.loc 1 195 0
	movq	$3, (%rdx)
	addq	$8, %rdx
	cmpl	%ecx, %eax
	jb	.L31
	cmpl	%ecx, %esi
	je	.L28
.LVL31:
.L30:
	movl	%esi, %r10d
	movl	%ecx, %edx
	subl	%ecx, %r10d
	movl	%r10d, %edi
	shrl	%edi
	movl	%edi, %r9d
	addl	%r9d, %r9d
	je	.L33
	movdqa	.LC1(%rip), %xmm0
	leaq	(%r8,%rdx,8), %rcx
	.loc 1 179 0
	xorl	%edx, %edx
	.p2align 4,,10
	.p2align 3
.L34:
	addl	$1, %edx
	.loc 1 195 0 discriminator 2
	movdqa	%xmm0, (%rcx)
	addq	$16, %rcx
	cmpl	%edi, %edx
	jb	.L34
	addl	%r9d, %eax
	cmpl	%r9d, %r10d
	je	.L28
.L33:
	.loc 1 179 0
	movslq	%eax, %rdx
	leaq	(%r8,%rdx,8), %rdx
	.p2align 4,,10
	.p2align 3
.L36:
	.loc 1 194 0
	addl	$1, %eax
.LVL32:
	.loc 1 195 0
	movq	$3, (%rdx)
	addq	$8, %rdx
	.loc 1 194 0
	cmpl	%eax, %esi
	jg	.L36
.LVL33:
.L28:
	.loc 1 198 0
	movl	$mut, %edi
	call	pthread_mutex_unlock
.LVL34:
	.loc 1 201 0
	addq	$136, %rsp
.LCFI10:
	.cfi_remember_state
	.cfi_def_cfa_offset 24
	movl	$1, %eax
	popq	%rbx
.LCFI11:
	.cfi_def_cfa_offset 16
.LVL35:
	popq	%rbp
.LCFI12:
	.cfi_def_cfa_offset 8
	ret
.LVL36:
	.p2align 4,,10
	.p2align 3
.L45:
.LCFI13:
	.cfi_restore_state
.LBB38:
.LBB36:
.LBB32:
.LBB33:
	.loc 1 319 0
	xorl	%eax, %eax
.LVL37:
	movq	%rsp, %rdi
	movl	$16, %ecx
	rep stosq
.LVL38:
.LBB34:
	.loc 1 320 0
	movq	$1, (%rsp)
.LBE34:
	.loc 1 322 0
	call	pthread_self
.LVL39:
	.loc 1 323 0
	movq	%rsp, %rdx
	movl	$128, %esi
	movq	%rax, %rdi
	call	pthread_setaffinity_np
.LVL40:
	jmp	.L25
.LVL41:
.L26:
.LBE33:
.LBE32:
.LBE36:
.LBE38:
	.loc 1 188 0
	movl	%eax, %esi
	movl	$.LC0, %edi
	xorl	%eax, %eax
	call	printf
.LVL42:
	.loc 1 189 0
	movl	$-1, %edi
	call	exit
.LVL43:
	.cfi_endproc
.LFE26:
	.size	e3_pthread_main1, .-e3_pthread_main1
	.p2align 4,,15
	.globl	e3_pthread_main2
	.type	e3_pthread_main2, @function
e3_pthread_main2:
.LFB27:
	.loc 1 203 0
	.cfi_startproc
.LVL44:
	pushq	%rbx
.LCFI14:
	.cfi_def_cfa_offset 16
	.cfi_offset 3, -16
.LBB44:
.LBB45:
	.loc 1 314 0
	movl	$84, %edi
.LVL45:
.LBE45:
.LBE44:
	.loc 1 203 0
	addq	$-128, %rsp
.LCFI15:
	.cfi_def_cfa_offset 144
.LBB51:
.LBB49:
	.loc 1 314 0
	call	sysconf
.LVL46:
	.loc 1 315 0
	cmpl	$1, %eax
	jg	.L49
.LVL47:
.L47:
.LBE49:
.LBE51:
	.loc 1 208 0
	movl	$mut, %edi
	call	pthread_mutex_lock
.LVL48:
	.loc 1 217 0
	movl	$mut, %edi
	call	pthread_mutex_unlock
.LVL49:
	.loc 1 220 0
	subq	$-128, %rsp
.LCFI16:
	.cfi_remember_state
	.cfi_def_cfa_offset 16
	movl	$1, %eax
	popq	%rbx
.LCFI17:
	.cfi_def_cfa_offset 8
	ret
.LVL50:
	.p2align 4,,10
	.p2align 3
.L49:
.LCFI18:
	.cfi_restore_state
.LBB52:
.LBB50:
.LBB46:
.LBB47:
	.loc 1 319 0
	xorl	%eax, %eax
.LVL51:
	movq	%rsp, %rdi
	movl	$16, %ecx
	rep stosq
.LVL52:
.LBB48:
	.loc 1 320 0
	movq	$2, (%rsp)
.LBE48:
	.loc 1 322 0
	call	pthread_self
.LVL53:
	.loc 1 323 0
	movq	%rsp, %rdx
	movl	$128, %esi
	movq	%rax, %rdi
	call	pthread_setaffinity_np
.LVL54:
	jmp	.L47
.LBE47:
.LBE46:
.LBE50:
.LBE52:
	.cfi_endproc
.LFE27:
	.size	e3_pthread_main2, .-e3_pthread_main2
	.p2align 4,,15
	.globl	e2_pthread_main1
	.type	e2_pthread_main1, @function
e2_pthread_main1:
.LFB23:
	.loc 1 101 0
	.cfi_startproc
.LVL55:
	pushq	%rbp
.LCFI19:
	.cfi_def_cfa_offset 16
	.cfi_offset 6, -16
	pushq	%rbx
.LCFI20:
	.cfi_def_cfa_offset 24
	.cfi_offset 3, -24
	movq	%rdi, %rbx
.LBB58:
.LBB59:
	.loc 1 314 0
	movl	$84, %edi
.LVL56:
.LBE59:
.LBE58:
	.loc 1 101 0
	subq	$136, %rsp
.LCFI21:
	.cfi_def_cfa_offset 160
.LBB65:
.LBB63:
	.loc 1 314 0
	call	sysconf
.LVL57:
	.loc 1 315 0
	testl	%eax, %eax
	jg	.L71
.LVL58:
.L51:
.LBE63:
.LBE65:
	.loc 1 106 0
	movl	$mut, %edi
	call	pthread_mutex_lock
.LVL59:
	.loc 1 108 0
	xorl	%esi, %esi
	movq	%rbx, %rcx
	movl	$e2_pthread_main2, %edx
	movl	$thread2, %edi
	call	pthread_create
.LVL60:
	.loc 1 109 0
	testl	%eax, %eax
	.loc 1 108 0
	movl	%eax, rc(%rip)
	.loc 1 109 0
	jne	.L52
.LVL61:
	.loc 1 116 0 discriminator 1
	movl	4(%rbx), %esi
	testl	%esi, %esi
	jle	.L54
	movq	8(%rbx), %r8
	.loc 1 101 0
	movq	%r8, %rcx
	movq	%r8, %rdx
	salq	$60, %rcx
	shrq	$63, %rcx
	cmpl	%ecx, %esi
	cmovb	%esi, %ecx
	cmpl	$6, %esi
	cmovbe	%esi, %ecx
	xorl	%eax, %eax
	testl	%ecx, %ecx
	je	.L56
.LVL62:
	.p2align 4,,10
	.p2align 3
.L57:
	.loc 1 116 0
	addl	$1, %eax
.LVL63:
	.loc 1 117 0
	movq	$3, (%rdx)
	addq	$8, %rdx
	cmpl	%ecx, %eax
	jb	.L57
	cmpl	%ecx, %esi
	je	.L54
.LVL64:
.L56:
	movl	%esi, %r10d
	movl	%ecx, %edx
	subl	%ecx, %r10d
	movl	%r10d, %edi
	shrl	%edi
	movl	%edi, %r9d
	addl	%r9d, %r9d
	je	.L59
	movdqa	.LC1(%rip), %xmm0
	leaq	(%r8,%rdx,8), %rcx
	.loc 1 101 0
	xorl	%edx, %edx
	.p2align 4,,10
	.p2align 3
.L60:
	addl	$1, %edx
	.loc 1 117 0 discriminator 2
	movdqa	%xmm0, (%rcx)
	addq	$16, %rcx
	cmpl	%edi, %edx
	jb	.L60
	addl	%r9d, %eax
	cmpl	%r9d, %r10d
	je	.L54
.L59:
	.loc 1 101 0
	movslq	%eax, %rdx
	leaq	(%r8,%rdx,8), %rdx
	.p2align 4,,10
	.p2align 3
.L62:
	.loc 1 116 0
	addl	$1, %eax
.LVL65:
	.loc 1 117 0
	movq	$3, (%rdx)
	addq	$8, %rdx
	.loc 1 116 0
	cmpl	%eax, %esi
	jg	.L62
.LVL66:
.L54:
	.loc 1 120 0
	movl	$mut, %edi
	call	pthread_mutex_unlock
.LVL67:
	.loc 1 123 0
	addq	$136, %rsp
.LCFI22:
	.cfi_remember_state
	.cfi_def_cfa_offset 24
	movl	$1, %eax
	popq	%rbx
.LCFI23:
	.cfi_def_cfa_offset 16
.LVL68:
	popq	%rbp
.LCFI24:
	.cfi_def_cfa_offset 8
	ret
.LVL69:
	.p2align 4,,10
	.p2align 3
.L71:
.LCFI25:
	.cfi_restore_state
.LBB66:
.LBB64:
.LBB60:
.LBB61:
	.loc 1 319 0
	xorl	%eax, %eax
.LVL70:
	movq	%rsp, %rdi
	movl	$16, %ecx
	rep stosq
.LVL71:
.LBB62:
	.loc 1 320 0
	movq	$1, (%rsp)
.LBE62:
	.loc 1 322 0
	call	pthread_self
.LVL72:
	.loc 1 323 0
	movq	%rsp, %rdx
	movl	$128, %esi
	movq	%rax, %rdi
	call	pthread_setaffinity_np
.LVL73:
	jmp	.L51
.LVL74:
.L52:
.LBE61:
.LBE60:
.LBE64:
.LBE66:
	.loc 1 110 0
	movl	%eax, %esi
	movl	$.LC0, %edi
	xorl	%eax, %eax
	call	printf
.LVL75:
	.loc 1 111 0
	movl	$-1, %edi
	call	exit
.LVL76:
	.cfi_endproc
.LFE23:
	.size	e2_pthread_main1, .-e2_pthread_main1
	.p2align 4,,15
	.globl	e2_pthread_main2
	.type	e2_pthread_main2, @function
e2_pthread_main2:
.LFB24:
	.loc 1 126 0
	.cfi_startproc
.LVL77:
	pushq	%rbx
.LCFI26:
	.cfi_def_cfa_offset 16
	.cfi_offset 3, -16
.LBB72:
.LBB73:
	.loc 1 314 0
	movl	$84, %edi
.LVL78:
.LBE73:
.LBE72:
	.loc 1 126 0
	addq	$-128, %rsp
.LCFI27:
	.cfi_def_cfa_offset 144
.LBB79:
.LBB77:
	.loc 1 314 0
	call	sysconf
.LVL79:
	.loc 1 315 0
	testl	%eax, %eax
	jg	.L75
.LVL80:
.L73:
.LBE77:
.LBE79:
	.loc 1 131 0
	movl	$mut, %edi
	call	pthread_mutex_lock
.LVL81:
	.loc 1 140 0
	movl	$mut, %edi
	call	pthread_mutex_unlock
.LVL82:
	.loc 1 143 0
	subq	$-128, %rsp
.LCFI28:
	.cfi_remember_state
	.cfi_def_cfa_offset 16
	movl	$1, %eax
	popq	%rbx
.LCFI29:
	.cfi_def_cfa_offset 8
	ret
.LVL83:
	.p2align 4,,10
	.p2align 3
.L75:
.LCFI30:
	.cfi_restore_state
.LBB80:
.LBB78:
.LBB74:
.LBB75:
	.loc 1 319 0
	xorl	%eax, %eax
.LVL84:
	movq	%rsp, %rdi
	movl	$16, %ecx
	rep stosq
.LVL85:
.LBB76:
	.loc 1 320 0
	movq	$1, (%rsp)
.LBE76:
	.loc 1 322 0
	call	pthread_self
.LVL86:
	.loc 1 323 0
	movq	%rsp, %rdx
	movl	$128, %esi
	movq	%rax, %rdi
	call	pthread_setaffinity_np
.LVL87:
	jmp	.L73
.LBE75:
.LBE74:
.LBE78:
.LBE80:
	.cfi_endproc
.LFE24:
	.size	e2_pthread_main2, .-e2_pthread_main2
	.p2align 4,,15
	.globl	e4_pthread_main2
	.type	e4_pthread_main2, @function
e4_pthread_main2:
.LFB30:
	.loc 1 290 0
	.cfi_startproc
.LVL88:
	movq	%rbx, -16(%rsp)
	movq	%rbp, -8(%rsp)
	.loc 1 291 0
	movl	$84, %edi
.LVL89:
	.loc 1 290 0
	subq	$152, %rsp
.LCFI31:
	.cfi_def_cfa_offset 160
	.cfi_offset 3, -24
	.cfi_offset 6, -16
	.loc 1 291 0
	call	sysconf
.LVL90:
	.loc 1 293 0
	leal	-1(%rax), %ebx
.LVL91:
.LBB86:
.LBB87:
	.loc 1 314 0
	movl	$84, %edi
	call	sysconf
.LVL92:
	.loc 1 315 0
	cmpl	%eax, %ebx
	jl	.L80
.LVL93:
.L77:
.LBE87:
.LBE86:
	.loc 1 298 0
	movl	$mut, %edi
	call	pthread_mutex_lock
.LVL94:
	.loc 1 307 0
	movl	$mut, %edi
	call	pthread_mutex_unlock
.LVL95:
	.loc 1 310 0
	movl	$1, %eax
	movq	136(%rsp), %rbx
.LVL96:
	movq	144(%rsp), %rbp
	addq	$152, %rsp
.LCFI32:
	.cfi_remember_state
	.cfi_def_cfa_offset 8
	ret
.LVL97:
	.p2align 4,,10
	.p2align 3
.L80:
.LCFI33:
	.cfi_restore_state
.LBB92:
.LBB91:
	.loc 1 315 0
	movl	%ebx, %eax
.LVL98:
	shrl	$31, %eax
	testb	%al, %al
	jne	.L77
.LVL99:
.LBB88:
.LBB89:
	.loc 1 319 0
	xorl	%eax, %eax
	movl	$16, %ecx
	movq	%rsp, %rdi
	rep stosq
.LBB90:
	.loc 1 320 0
	movslq	%ebx, %rax
.LVL100:
	cmpq	$1023, %rax
	ja	.L78
	movl	$1, %edx
	movl	%ebx, %ecx
	shrq	$6, %rax
.LVL101:
	salq	%cl, %rdx
	movq	%rdx, (%rsp,%rax,8)
.L78:
.LBE90:
	.loc 1 322 0
	call	pthread_self
.LVL102:
	.loc 1 323 0
	movq	%rsp, %rdx
	movl	$128, %esi
	movq	%rax, %rdi
	call	pthread_setaffinity_np
.LVL103:
	jmp	.L77
.LBE89:
.LBE88:
.LBE91:
.LBE92:
	.cfi_endproc
.LFE30:
	.size	e4_pthread_main2, .-e4_pthread_main2
	.p2align 4,,15
	.globl	experiment_0
	.type	experiment_0, @function
experiment_0:
.LFB20:
	.loc 1 42 0
	.cfi_startproc
.LVL104:
	rep
	ret
	.cfi_endproc
.LFE20:
	.size	experiment_0, .-experiment_0
	.p2align 4,,15
	.globl	experiment_1
	.type	experiment_1, @function
experiment_1:
.LFB21:
	.loc 1 53 0
	.cfi_startproc
.LVL105:
	rep
	ret
	.cfi_endproc
.LFE21:
	.size	experiment_1, .-experiment_1
	.p2align 4,,15
	.globl	experiment_2
	.type	experiment_2, @function
experiment_2:
.LFB22:
	.loc 1 71 0
	.cfi_startproc
.LVL106:
	.loc 1 71 0
	movq	%rbp, -16(%rsp)
	.cfi_offset 6, -24
	movl	%edi, %ebp
	.loc 1 73 0
	leal	0(,%rdi,8), %edi
.LVL107:
	.loc 1 71 0
	movq	%rbx, -24(%rsp)
	movq	%r12, -8(%rsp)
	subq	$24, %rsp
.LCFI34:
	.cfi_def_cfa_offset 32
	.cfi_offset 3, -32
	.cfi_offset 12, -16
.LBB93:
.LBB94:
	.loc 1 338 0
	movslq	%edi, %rdi
	call	malloc
.LVL108:
.LBE94:
.LBE93:
	.loc 1 76 0
	movl	$16, %edi
.LBB96:
.LBB95:
	.loc 1 338 0
	movq	%rax, %r12
.LBE95:
.LBE96:
	.loc 1 76 0
	call	malloc
.LVL109:
	.loc 1 81 0
	xorl	%esi, %esi
	.loc 1 76 0
	movq	%rax, %rbx
.LVL110:
	.loc 1 81 0
	movl	$mut, %edi
	.loc 1 77 0
	movl	$2, (%rax)
	.loc 1 78 0
	movl	%ebp, 4(%rax)
	.loc 1 79 0
	movq	%r12, 8(%rax)
	.loc 1 81 0
	call	pthread_mutex_init
.LVL111:
	.loc 1 84 0
	xorl	%esi, %esi
	movq	%rbx, %rcx
	movl	$e2_pthread_main1, %edx
	movl	$thread1, %edi
	call	pthread_create
.LVL112:
	.loc 1 85 0
	testl	%eax, %eax
	.loc 1 84 0
	movl	%eax, rc(%rip)
	.loc 1 85 0
	jne	.L86
	.loc 1 91 0
	movq	thread1(%rip), %rdi
	xorl	%esi, %esi
	call	pthread_join
.LVL113:
	.loc 1 92 0
	movq	thread2(%rip), %rdi
	xorl	%esi, %esi
	call	pthread_join
.LVL114:
	.loc 1 95 0
	movq	%r12, %rdi
	call	free
.LVL115:
	.loc 1 96 0
	movq	%rbx, %rdi
	call	free
.LVL116:
	.loc 1 98 0
	movq	(%rsp), %rbx
.LVL117:
	movq	8(%rsp), %rbp
.LVL118:
	.loc 1 97 0
	movl	$mut, %edi
	.loc 1 98 0
	movq	16(%rsp), %r12
	addq	$24, %rsp
.LCFI35:
	.cfi_remember_state
	.cfi_def_cfa_offset 8
	.loc 1 97 0
	jmp	pthread_mutex_destroy
.LVL119:
.L86:
.LCFI36:
	.cfi_restore_state
	.loc 1 86 0
	movl	%eax, %esi
	movl	$.LC0, %edi
	xorl	%eax, %eax
	call	printf
.LVL120:
	.loc 1 87 0
	orl	$-1, %edi
	call	exit
.LVL121:
	.cfi_endproc
.LFE22:
	.size	experiment_2, .-experiment_2
	.p2align 4,,15
	.globl	experiment_3
	.type	experiment_3, @function
experiment_3:
.LFB25:
	.loc 1 149 0
	.cfi_startproc
.LVL122:
	movq	%rbp, -16(%rsp)
	.cfi_offset 6, -24
	movl	%edi, %ebp
	.loc 1 151 0
	leal	0(,%rdi,8), %edi
.LVL123:
	.loc 1 149 0
	movq	%rbx, -24(%rsp)
	movq	%r12, -8(%rsp)
	subq	$24, %rsp
.LCFI37:
	.cfi_def_cfa_offset 32
	.cfi_offset 3, -32
	.cfi_offset 12, -16
.LBB97:
.LBB98:
	.loc 1 338 0
	movslq	%edi, %rdi
	call	malloc
.LVL124:
.LBE98:
.LBE97:
	.loc 1 154 0
	movl	$16, %edi
.LBB100:
.LBB99:
	.loc 1 338 0
	movq	%rax, %r12
.LBE99:
.LBE100:
	.loc 1 154 0
	call	malloc
.LVL125:
	.loc 1 159 0
	xorl	%esi, %esi
	.loc 1 154 0
	movq	%rax, %rbx
.LVL126:
	.loc 1 159 0
	movl	$mut, %edi
	.loc 1 155 0
	movl	$3, (%rax)
	.loc 1 156 0
	movl	%ebp, 4(%rax)
	.loc 1 157 0
	movq	%r12, 8(%rax)
	.loc 1 159 0
	call	pthread_mutex_init
.LVL127:
	.loc 1 162 0
	xorl	%esi, %esi
	movq	%rbx, %rcx
	movl	$e3_pthread_main1, %edx
	movl	$thread1, %edi
	call	pthread_create
.LVL128:
	.loc 1 163 0
	testl	%eax, %eax
	.loc 1 162 0
	movl	%eax, rc(%rip)
	.loc 1 163 0
	jne	.L90
	.loc 1 169 0
	movq	thread1(%rip), %rdi
	xorl	%esi, %esi
	call	pthread_join
.LVL129:
	.loc 1 170 0
	movq	thread2(%rip), %rdi
	xorl	%esi, %esi
	call	pthread_join
.LVL130:
	.loc 1 173 0
	movq	%r12, %rdi
	call	free
.LVL131:
	.loc 1 174 0
	movq	%rbx, %rdi
	call	free
.LVL132:
	.loc 1 176 0
	movq	(%rsp), %rbx
.LVL133:
	movq	8(%rsp), %rbp
.LVL134:
	.loc 1 175 0
	movl	$mut, %edi
	.loc 1 176 0
	movq	16(%rsp), %r12
	addq	$24, %rsp
.LCFI38:
	.cfi_remember_state
	.cfi_def_cfa_offset 8
	.loc 1 175 0
	jmp	pthread_mutex_destroy
.LVL135:
.L90:
.LCFI39:
	.cfi_restore_state
	.loc 1 164 0
	movl	%eax, %esi
	movl	$.LC0, %edi
	xorl	%eax, %eax
	call	printf
.LVL136:
	.loc 1 165 0
	orl	$-1, %edi
	call	exit
.LVL137:
	.cfi_endproc
.LFE25:
	.size	experiment_3, .-experiment_3
	.p2align 4,,15
	.globl	experiment_4
	.type	experiment_4, @function
experiment_4:
.LFB28:
	.loc 1 226 0
	.cfi_startproc
.LVL138:
	pushq	%r12
.LCFI40:
	.cfi_def_cfa_offset 16
	.cfi_offset 12, -16
	pushq	%rbp
.LCFI41:
	.cfi_def_cfa_offset 24
	.cfi_offset 6, -24
	movl	%edi, %ebp
	.loc 1 228 0
	leal	0(,%rdi,8), %edi
.LVL139:
	.loc 1 226 0
	pushq	%rbx
.LCFI42:
	.cfi_def_cfa_offset 32
	.cfi_offset 3, -32
.LBB101:
.LBB102:
	.loc 1 338 0
	movslq	%edi, %rdi
	call	malloc
.LVL140:
.LBE102:
.LBE101:
	.loc 1 231 0
	movl	$16, %edi
.LBB104:
.LBB103:
	.loc 1 338 0
	movq	%rax, %r12
.LBE103:
.LBE104:
	.loc 1 231 0
	call	malloc
.LVL141:
	.loc 1 236 0
	xorl	%esi, %esi
	movl	$mut, %edi
	.loc 1 232 0
	movl	$4, (%rax)
	.loc 1 233 0
	movl	%ebp, 4(%rax)
	.loc 1 234 0
	movq	%r12, 8(%rax)
	.loc 1 231 0
	movq	%rax, %rbx
.LVL142:
	.loc 1 236 0
	call	pthread_mutex_init
.LVL143:
	.loc 1 239 0
	movl	$mut, %edi
	call	pthread_mutex_lock
.LVL144:
	.loc 1 240 0
	xorl	%esi, %esi
	movq	%rbx, %rcx
	movl	$e4_pthread_main1, %edx
	movl	$thread1, %edi
	call	pthread_create
.LVL145:
	.loc 1 241 0
	testl	%eax, %eax
	.loc 1 240 0
	movl	%eax, rc(%rip)
	.loc 1 241 0
	jne	.L95
	.loc 1 245 0
	movl	$mut, %edi
	call	pthread_mutex_unlock
.LVL146:
	.loc 1 246 0
	movl	$mut, %edi
	call	pthread_mutex_lock
.LVL147:
	.loc 1 247 0
	xorl	%esi, %esi
	movq	%rbx, %rcx
	movl	$e4_pthread_main2, %edx
	movl	$thread2, %edi
	call	pthread_create
.LVL148:
	.loc 1 248 0
	testl	%eax, %eax
	.loc 1 247 0
	movl	%eax, rc(%rip)
	.loc 1 248 0
	jne	.L95
	.loc 1 252 0
	movl	$mut, %edi
	call	pthread_mutex_unlock
.LVL149:
	.loc 1 255 0
	movq	thread1(%rip), %rdi
	xorl	%esi, %esi
	call	pthread_join
.LVL150:
	.loc 1 256 0
	movq	thread2(%rip), %rdi
	xorl	%esi, %esi
	call	pthread_join
.LVL151:
	.loc 1 259 0
	movq	%r12, %rdi
	call	free
.LVL152:
	.loc 1 260 0
	movq	%rbx, %rdi
	call	free
.LVL153:
	.loc 1 262 0
	popq	%rbx
.LCFI43:
	.cfi_remember_state
	.cfi_def_cfa_offset 24
.LVL154:
	popq	%rbp
.LCFI44:
	.cfi_def_cfa_offset 16
.LVL155:
	popq	%r12
.LCFI45:
	.cfi_def_cfa_offset 8
	.loc 1 261 0
	movl	$mut, %edi
	jmp	pthread_mutex_destroy
.LVL156:
.L95:
.LCFI46:
	.cfi_restore_state
	.loc 1 249 0
	movl	%eax, %esi
	movl	$.LC0, %edi
	xorl	%eax, %eax
	call	printf
.LVL157:
	.loc 1 250 0
	orl	$-1, %edi
	call	exit
.LVL158:
	.cfi_endproc
.LFE28:
	.size	experiment_4, .-experiment_4
	.p2align 4,,15
	.globl	pin_thread_to_core
	.type	pin_thread_to_core, @function
pin_thread_to_core:
.LFB31:
	.loc 1 313 0
	.cfi_startproc
.LVL159:
	movq	%rbx, -16(%rsp)
	movq	%rbp, -8(%rsp)
	.cfi_offset 3, -24
	.cfi_offset 6, -16
	movl	%edi, %ebx
	subq	$152, %rsp
.LCFI47:
	.cfi_def_cfa_offset 160
	.loc 1 314 0
	movl	$84, %edi
.LVL160:
	call	sysconf
.LVL161:
	.loc 1 315 0
	cmpl	%eax, %ebx
	jl	.L101
.LVL162:
.L99:
	.loc 1 316 0
	movl	$22, %eax
.L97:
	.loc 1 324 0
	movq	136(%rsp), %rbx
.LVL163:
	movq	144(%rsp), %rbp
	addq	$152, %rsp
.LCFI48:
	.cfi_remember_state
	.cfi_def_cfa_offset 8
	ret
.LVL164:
	.p2align 4,,10
	.p2align 3
.L101:
.LCFI49:
	.cfi_restore_state
	.loc 1 315 0
	movl	%ebx, %eax
.LVL165:
	shrl	$31, %eax
	testb	%al, %al
	jne	.L99
.LVL166:
.LBB108:
.LBB109:
	.loc 1 319 0
	xorl	%eax, %eax
	movl	$16, %ecx
	movq	%rsp, %rdi
	rep stosq
.LBB110:
	.loc 1 320 0
	movslq	%ebx, %rax
.LVL167:
	cmpq	$1023, %rax
	ja	.L98
	movl	$1, %edx
	movl	%ebx, %ecx
	shrq	$6, %rax
.LVL168:
	salq	%cl, %rdx
	movq	%rdx, (%rsp,%rax,8)
.L98:
.LBE110:
	.loc 1 322 0
	call	pthread_self
.LVL169:
	.loc 1 323 0
	movq	%rsp, %rdx
	movl	$128, %esi
	movq	%rax, %rdi
	call	pthread_setaffinity_np
.LVL170:
	jmp	.L97
.LBE109:
.LBE108:
	.cfi_endproc
.LFE31:
	.size	pin_thread_to_core, .-pin_thread_to_core
	.p2align 4,,15
	.globl	align_long_array
	.type	align_long_array, @function
align_long_array:
.LFB32:
	.loc 1 327 0
	.cfi_startproc
.LVL171:
	.loc 1 338 0
	movslq	%edi, %rdi
	jmp	malloc
.LVL172:
	.cfi_endproc
.LFE32:
	.size	align_long_array, .-align_long_array
	.comm	rc,4,4
	.comm	thread2,8,8
	.comm	thread1,8,8
	.comm	mut,40,32
	.section	.rodata.cst16,"aM",@progbits,16
	.align 16
.LC1:
	.quad	3
	.quad	3
	.text
.Letext0:
	.file 2 "/usr/lib/gcc/x86_64-linux-gnu/4.7/include/stddef.h"
	.file 3 "/usr/include/x86_64-linux-gnu/bits/types.h"
	.file 4 "/usr/include/libio.h"
	.file 5 "/usr/include/x86_64-linux-gnu/bits/pthreadtypes.h"
	.file 6 "/usr/include/x86_64-linux-gnu/bits/sched.h"
	.file 7 "experiments.h"
	.file 8 "/usr/include/stdio.h"
	.file 9 "/usr/include/pthread.h"
	.file 10 "/usr/include/unistd.h"
	.file 11 "/usr/include/stdlib.h"
	.file 12 "/usr/include/x86_64-linux-gnu/bits/confname.h"
	.section	.note.GNU-stack,"",@progbits
