	.file	"file_worker.c"
	.text
.Ltext0:
	.section	.rodata.str1.1,"aMS",@progbits,1
.LC0:
	.string	"r"
	.section	.rodata.str1.8,"aMS",@progbits,1
	.align 8
.LC1:
	.string	"%d %s %c %d %d %d %d %d %lu %lu %lu %lu %lu %lu %lu %ld %ld %ld %ld %ld %ld %lu %lu %ld %lu %lu %lu %lu %lu %lu %lu %lu %lu %lu %lu %lu %lu %d %d %lu %lu %llu"
	.text
	.p2align 4,,15
	.globl	read_stat
	.type	read_stat, @function
read_stat:
.LFB49:
	.file 1 "file_worker.c"
	.loc 1 36 0
	.cfi_startproc
.LVL0:
	pushq	%r12
.LCFI0:
	.cfi_def_cfa_offset 16
	.cfi_offset 12, -16
	.loc 1 41 0
	movl	$.LC0, %esi
.LVL1:
	.loc 1 98 0
	xorl	%r12d, %r12d
	.loc 1 36 0
	pushq	%rbp
.LCFI1:
	.cfi_def_cfa_offset 24
	.cfi_offset 6, -24
	pushq	%rbx
.LCFI2:
	.cfi_def_cfa_offset 32
	.cfi_offset 3, -32
	movq	%rdx, %rbx
	subq	$304, %rsp
.LCFI3:
	.cfi_def_cfa_offset 336
	.loc 1 41 0
	call	fopen
.LVL2:
	.loc 1 42 0
	testq	%rax, %rax
	.loc 1 41 0
	movq	%rax, %rbp
.LVL3:
	.loc 1 42 0
	je	.L2
	.loc 1 43 0
	leaq	544(%rbx), %rax
.LVL4:
	.loc 1 45 0
	leaq	4(%rbx), %rcx
	.loc 1 43 0
	leaq	264(%rbx), %r9
	leaq	260(%rbx), %r8
	movq	%rbp, %rdi
	movq	%rbx, %rdx
	movq	%rax, 296(%rsp)
	leaq	536(%rbx), %rax
	movl	$.LC1, %esi
	movq	%rax, 288(%rsp)
	leaq	528(%rbx), %rax
	movq	%rax, 280(%rsp)
	leaq	524(%rbx), %rax
	movq	%rax, 272(%rsp)
	leaq	520(%rbx), %rax
	movq	%rax, 264(%rsp)
	leaq	512(%rbx), %rax
	movq	%rax, 256(%rsp)
	leaq	504(%rbx), %rax
	movq	%rax, 248(%rsp)
	leaq	496(%rbx), %rax
	movq	%rax, 240(%rsp)
	leaq	488(%rbx), %rax
	movq	%rax, 232(%rsp)
	leaq	480(%rbx), %rax
	movq	%rax, 224(%rsp)
	leaq	472(%rbx), %rax
	movq	%rax, 216(%rsp)
	leaq	464(%rbx), %rax
	movq	%rax, 208(%rsp)
	leaq	456(%rbx), %rax
	movq	%rax, 200(%rsp)
	leaq	448(%rbx), %rax
	movq	%rax, 192(%rsp)
	leaq	440(%rbx), %rax
	movq	%rax, 184(%rsp)
	leaq	432(%rbx), %rax
	movq	%rax, 176(%rsp)
	leaq	424(%rbx), %rax
	movq	%rax, 168(%rsp)
	leaq	416(%rbx), %rax
	movq	%rax, 160(%rsp)
	leaq	408(%rbx), %rax
	movq	%rax, 152(%rsp)
	leaq	400(%rbx), %rax
	movq	%rax, 144(%rsp)
	leaq	392(%rbx), %rax
	movq	%rax, 136(%rsp)
	leaq	384(%rbx), %rax
	movq	%rax, 128(%rsp)
	leaq	376(%rbx), %rax
	movq	%rax, 120(%rsp)
	leaq	368(%rbx), %rax
	movq	%rax, 112(%rsp)
	leaq	360(%rbx), %rax
	movq	%rax, 104(%rsp)
	leaq	352(%rbx), %rax
	movq	%rax, 96(%rsp)
	leaq	344(%rbx), %rax
	movq	%rax, 88(%rsp)
	leaq	336(%rbx), %rax
	movq	%rax, 80(%rsp)
	leaq	328(%rbx), %rax
	movq	%rax, 72(%rsp)
	leaq	320(%rbx), %rax
	movq	%rax, 64(%rsp)
	leaq	312(%rbx), %rax
	movq	%rax, 56(%rsp)
	leaq	304(%rbx), %rax
	movq	%rax, 48(%rsp)
	leaq	296(%rbx), %rax
	movq	%rax, 40(%rsp)
	leaq	288(%rbx), %rax
	movq	%rax, 32(%rsp)
	leaq	280(%rbx), %rax
	movq	%rax, 24(%rsp)
	leaq	276(%rbx), %rax
	movq	%rax, 16(%rsp)
	leaq	272(%rbx), %rax
	movq	%rax, 8(%rsp)
	leaq	268(%rbx), %rax
	movq	%rax, (%rsp)
	xorl	%eax, %eax
	call	__isoc99_fscanf
.LVL5:
	cmpl	$42, %eax
	.loc 1 88 0
	movq	%rbp, %rdi
	.loc 1 43 0
	je	.L8
	.loc 1 93 0
	call	fclose
.LVL6:
.L2:
	.loc 1 103 0
	addq	$304, %rsp
.LCFI4:
	.cfi_remember_state
	.cfi_def_cfa_offset 32
	movl	%r12d, %eax
	popq	%rbx
.LCFI5:
	.cfi_def_cfa_offset 24
.LVL7:
	popq	%rbp
.LCFI6:
	.cfi_def_cfa_offset 16
.LVL8:
	popq	%r12
.LCFI7:
	.cfi_def_cfa_offset 8
	ret
.LVL9:
	.p2align 4,,10
	.p2align 3
.L8:
.LCFI8:
	.cfi_restore_state
	.loc 1 88 0
	call	fclose
.LVL10:
	.loc 1 103 0
	addq	$304, %rsp
.LCFI9:
	.cfi_def_cfa_offset 32
	.loc 1 90 0
	movb	$1, %r12b
	.loc 1 103 0
	popq	%rbx
.LCFI10:
	.cfi_def_cfa_offset 24
.LVL11:
	popq	%rbp
.LCFI11:
	.cfi_def_cfa_offset 16
.LVL12:
	movl	%r12d, %eax
	popq	%r12
.LCFI12:
	.cfi_def_cfa_offset 8
	ret
	.cfi_endproc
.LFE49:
	.size	read_stat, .-read_stat
	.section	.rodata.str1.1
.LC2:
	.string	"/proc/%d/stat"
	.text
	.p2align 4,,15
	.globl	get_page_fault_file
	.type	get_page_fault_file, @function
get_page_fault_file:
.LFB50:
	.loc 1 105 0
	.cfi_startproc
.LVL13:
	movq	%rbx, -24(%rsp)
	movq	%rbp, -16(%rsp)
	.cfi_offset 3, -32
	.cfi_offset 6, -24
	movq	%rdi, %rbx
	movq	%r12, -8(%rsp)
	subq	$840, %rsp
.LCFI13:
	.cfi_def_cfa_offset 848
	.cfi_offset 12, -16
	.loc 1 113 0
	leaq	256(%rsp), %rbp
	.loc 1 107 0
	call	getpid
.LVL14:
	.loc 1 110 0
	movq	%rsp, %rdi
	.loc 1 107 0
	movl	%eax, %r12d
.LVL15:
	.loc 1 110 0
	movl	%eax, %edx
	movl	$.LC2, %esi
	xorl	%eax, %eax
.LVL16:
	call	sprintf
.LVL17:
	.loc 1 113 0
	movl	%r12d, %esi
	movq	%rsp, %rdi
	movq	%rbp, %rdx
	call	read_stat
.LVL18:
	.loc 1 115 0
	movq	%rbx, %rdi
	movq	%rbp, %rsi
	movl	$69, %ecx
	rep movsq
	.loc 1 116 0
	movq	%rbx, %rax
	movq	816(%rsp), %rbx
.LVL19:
	movq	824(%rsp), %rbp
	movq	832(%rsp), %r12
.LVL20:
	addq	$840, %rsp
.LCFI14:
	.cfi_def_cfa_offset 8
	ret
	.cfi_endproc
.LFE50:
	.size	get_page_fault_file, .-get_page_fault_file
	.p2align 4,,15
	.globl	get_page_fault
	.type	get_page_fault, @function
get_page_fault:
.LFB51:
	.loc 1 119 0
	.cfi_startproc
.LVL21:
	.loc 1 126 0
	movq	320(%rsp), %rax
	.loc 1 122 0
	cmpl	$1, %edi
	cmove	304(%rsp), %rax
	.loc 1 133 0
	ret
	.cfi_endproc
.LFE51:
	.size	get_page_fault, .-get_page_fault
	.section	.rodata.str1.1
.LC3:
	.string	"wb+"
.LC4:
	.string	"temp"
.LC5:
	.string	"Error opening a temp file."
	.text
	.p2align 4,,15
	.globl	get_page_fault_from_string
	.type	get_page_fault_from_string, @function
get_page_fault_from_string:
.LFB52:
	.loc 1 136 0
	.cfi_startproc
.LVL22:
	movq	%rbx, -24(%rsp)
	movq	%rbp, -16(%rsp)
	.cfi_offset 3, -32
	.cfi_offset 6, -24
	movl	%esi, %ebp
	movq	%r12, -8(%rsp)
	.loc 1 141 0
	movl	$.LC3, %esi
.LVL23:
	.loc 1 136 0
	subq	$584, %rsp
.LCFI15:
	.cfi_def_cfa_offset 592
	.cfi_offset 12, -16
	.loc 1 136 0
	movq	%rdi, %r12
	.loc 1 141 0
	movl	$.LC4, %edi
.LVL24:
	call	fopen
.LVL25:
	.loc 1 142 0
	testq	%rax, %rax
	.loc 1 141 0
	movq	%rax, %rbx
.LVL26:
	.loc 1 142 0
	je	.L15
	.loc 1 144 0
	movq	%r12, %rdi
	movq	%rax, %rsi
	call	fputs
.LVL27:
	.loc 1 146 0
	movq	%rbx, %rdi
	call	fclose
.LVL28:
.L16:
	.loc 1 153 0
	call	getpid
.LVL29:
	.loc 1 156 0
	movq	%rsp, %rdx
	movl	%eax, %esi
	movl	$.LC4, %edi
	call	read_stat
.LVL30:
	.loc 1 159 0
	cmpl	$1, %ebp
	.loc 1 163 0
	movq	312(%rsp), %rax
	.loc 1 170 0
	movq	560(%rsp), %rbx
.LVL31:
	.loc 1 159 0
	cmove	296(%rsp), %rax
	.loc 1 170 0
	movq	568(%rsp), %rbp
.LVL32:
	movq	576(%rsp), %r12
.LVL33:
	addq	$584, %rsp
.LCFI16:
	.cfi_remember_state
	.cfi_def_cfa_offset 8
	ret
.LVL34:
	.p2align 4,,10
	.p2align 3
.L15:
.LCFI17:
	.cfi_restore_state
	.loc 1 149 0
	movl	$.LC5, %edi
	call	puts
.LVL35:
	jmp	.L16
	.cfi_endproc
.LFE52:
	.size	get_page_fault_from_string, .-get_page_fault_from_string
	.section	.rodata.str1.1
.LC6:
	.string	"results/xeon_clean"
.LC7:
	.string	"%s-%d-%d.csv"
.LC8:
	.string	"results/xeon_dirty"
.LC9:
	.string	"Error creating file."
.LC10:
	.string	"N,Time"
.LC11:
	.string	",%d.INT,%d.PFMIN,%d.PFMAJ"
.LC12:
	.string	"\n%lu,%llu"
.LC13:
	.string	",%llu,%llu,%llu"
.LC14:
	.string	"Finished writing to file %d.\n"
	.text
	.p2align 4,,15
	.globl	write_to_csv
	.type	write_to_csv, @function
write_to_csv:
.LFB53:
	.loc 1 174 0
	.cfi_startproc
.LVL36:
	pushq	%r15
.LCFI18:
	.cfi_def_cfa_offset 16
	.cfi_offset 15, -16
	movl	%r8d, %r15d
	.loc 1 180 0
	movl	%edx, %r8d
.LVL37:
	.loc 1 174 0
	pushq	%r14
.LCFI19:
	.cfi_def_cfa_offset 24
	.cfi_offset 14, -24
	movq	%rdi, %r14
	pushq	%r13
.LCFI20:
	.cfi_def_cfa_offset 32
	.cfi_offset 13, -32
	pushq	%r12
.LCFI21:
	.cfi_def_cfa_offset 40
	.cfi_offset 12, -40
	pushq	%rbp
.LCFI22:
	.cfi_def_cfa_offset 48
	.cfi_offset 6, -48
	movq	%r9, %rbp
	.loc 1 180 0
	movl	%ecx, %r9d
.LVL38:
	movl	$.LC6, %ecx
.LVL39:
	.loc 1 174 0
	pushq	%rbx
.LCFI23:
	.cfi_def_cfa_offset 56
	.cfi_offset 3, -56
	subq	$152, %rsp
.LCFI24:
	.cfi_def_cfa_offset 208
	.loc 1 178 0
	cmpl	$1, %esi
	.loc 1 174 0
	movl	%esi, 28(%rsp)
	.loc 1 178 0
	je	.L31
	.loc 1 184 0
	movl	$.LC8, %ecx
.L31:
	leaq	32(%rsp), %rdi
.LVL40:
	movl	$.LC7, %edx
.LVL41:
	movl	$100, %esi
.LVL42:
	xorl	%eax, %eax
	call	snprintf
.LVL43:
	.loc 1 185 0
	leaq	32(%rsp), %rdi
	movl	$.LC3, %esi
	call	fopen
.LVL44:
	.loc 1 188 0
	testq	%rax, %rax
	.loc 1 185 0
	movq	%rax, %rbx
.LVL45:
	.loc 1 188 0
	je	.L32
.LVL46:
.L23:
	.loc 1 195 0
	movq	%rbx, %rcx
	movl	$6, %edx
	movl	$1, %esi
	movl	$.LC10, %edi
	call	fwrite
.LVL47:
	.loc 1 198 0
	movl	$1, %r8d
	movl	$1, %ecx
	movl	$1, %edx
	movl	$.LC11, %esi
	movq	%rbx, %rdi
	xorl	%eax, %eax
	call	fprintf
.LVL48:
	movl	$2, %r8d
	movl	$2, %ecx
	movl	$2, %edx
	movl	$.LC11, %esi
	movq	%rbx, %rdi
	xorl	%eax, %eax
	call	fprintf
.LVL49:
	movl	$3, %r8d
	movl	$3, %ecx
	movl	$3, %edx
	movl	$.LC11, %esi
	movq	%rbx, %rdi
	xorl	%eax, %eax
	call	fprintf
.LVL50:
	movl	$4, %r8d
	movl	$4, %ecx
	movl	$4, %edx
	movl	$.LC11, %esi
	movq	%rbx, %rdi
	xorl	%eax, %eax
	call	fprintf
.LVL51:
	movl	$5, %r8d
	movl	$5, %ecx
	movl	$5, %edx
	movl	$.LC11, %esi
	movq	%rbx, %rdi
	xorl	%eax, %eax
	call	fprintf
.LVL52:
	movl	$6, %r8d
	movl	$6, %ecx
	movl	$6, %edx
	movl	$.LC11, %esi
	movq	%rbx, %rdi
	xorl	%eax, %eax
	call	fprintf
.LVL53:
	movl	$7, %r8d
	movl	$7, %ecx
	movl	$7, %edx
	movl	$.LC11, %esi
	movq	%rbx, %rdi
	xorl	%eax, %eax
	call	fprintf
.LVL54:
	movl	$8, %r8d
	movl	$8, %ecx
	movl	$8, %edx
	movl	$.LC11, %esi
	movq	%rbx, %rdi
	xorl	%eax, %eax
	call	fprintf
.LVL55:
	movl	$9, %r8d
	movl	$9, %ecx
	movl	$9, %edx
	movl	$.LC11, %esi
	movq	%rbx, %rdi
	xorl	%eax, %eax
	call	fprintf
.LVL56:
	xorl	%eax, %eax
	movl	$10, %r8d
	movl	$10, %ecx
	movl	$10, %edx
	movl	$.LC11, %esi
	movq	%rbx, %rdi
	call	fprintf
.LVL57:
	.loc 1 203 0
	testl	%r15d, %r15d
	jle	.L28
	.loc 1 173 0
	subl	$1, %r15d
.LVL58:
	movq	216(%rsp), %r13
	movq	208(%rsp), %r12
	leaq	8(,%r15,8), %r15
	xorl	%r9d, %r9d
	movq	%r15, 16(%rsp)
	movl	$1, %r15d
.LVL59:
	.p2align 4,,10
	.p2align 3
.L27:
.LBB5:
	.loc 1 204 0
	movq	(%r14,%r9), %rcx
	leaq	0(,%r15,8), %rdx
	movl	$.LC12, %esi
	movq	%rbx, %rdi
	xorl	%eax, %eax
	movq	%r9, 8(%rsp)
	call	fprintf
.LVL60:
	.loc 1 208 0
	movq	0(%r13), %r8
	movq	(%r12), %rcx
	movl	$.LC13, %esi
	movq	0(%rbp), %rdx
	movq	%rbx, %rdi
	xorl	%eax, %eax
	call	fprintf
.LVL61:
	movq	8(%r12), %rcx
	movq	8(%rbp), %rdx
	movl	$.LC13, %esi
	movq	8(%r13), %r8
	movq	%rbx, %rdi
	xorl	%eax, %eax
	call	fprintf
.LVL62:
	movq	16(%r12), %rcx
	movq	16(%rbp), %rdx
	movl	$.LC13, %esi
	movq	16(%r13), %r8
	movq	%rbx, %rdi
	xorl	%eax, %eax
	call	fprintf
.LVL63:
	movq	24(%r12), %rcx
	movq	24(%rbp), %rdx
	movl	$.LC13, %esi
	movq	24(%r13), %r8
	movq	%rbx, %rdi
	xorl	%eax, %eax
	call	fprintf
.LVL64:
	movq	32(%r12), %rcx
	movq	32(%rbp), %rdx
	movl	$.LC13, %esi
	movq	32(%r13), %r8
	movq	%rbx, %rdi
	xorl	%eax, %eax
	call	fprintf
.LVL65:
	movq	40(%r12), %rcx
	movq	40(%rbp), %rdx
	movl	$.LC13, %esi
	movq	40(%r13), %r8
	movq	%rbx, %rdi
	xorl	%eax, %eax
	call	fprintf
.LVL66:
	movq	48(%r12), %rcx
	movq	48(%rbp), %rdx
	movl	$.LC13, %esi
	movq	48(%r13), %r8
	movq	%rbx, %rdi
	xorl	%eax, %eax
	call	fprintf
.LVL67:
	movq	56(%r12), %rcx
	movq	56(%rbp), %rdx
	movl	$.LC13, %esi
	movq	56(%r13), %r8
	movq	%rbx, %rdi
	xorl	%eax, %eax
	call	fprintf
.LVL68:
	movq	64(%r12), %rcx
	movq	64(%rbp), %rdx
	movl	$.LC13, %esi
	movq	64(%r13), %r8
	movq	%rbx, %rdi
	xorl	%eax, %eax
	call	fprintf
.LVL69:
	movq	72(%r12), %rcx
	movq	72(%rbp), %rdx
	movl	$.LC13, %esi
	movq	72(%r13), %r8
	movq	%rbx, %rdi
	xorl	%eax, %eax
	addq	$80, %r13
	addq	$80, %r12
	addq	$80, %rbp
	call	fprintf
.LVL70:
	.loc 1 210 0
	movq	%r15, %rdi
	call	calculate_n
.LVL71:
	movq	8(%rsp), %r9
	movq	%rax, %r15
.LVL72:
	addq	$8, %r9
.LBE5:
	.loc 1 203 0
	cmpq	16(%rsp), %r9
	jne	.L27
.LVL73:
.L28:
	.loc 1 214 0
	testq	%rbx, %rbx
	je	.L26
	.loc 1 215 0
	movq	%rbx, %rdi
	call	fclose
.LVL74:
.L26:
	.loc 1 218 0
	movl	28(%rsp), %esi
	movl	$.LC14, %edi
	xorl	%eax, %eax
	call	printf
.LVL75:
	.loc 1 220 0
	addq	$152, %rsp
.LCFI25:
	.cfi_remember_state
	.cfi_def_cfa_offset 56
	popq	%rbx
.LCFI26:
	.cfi_def_cfa_offset 48
.LVL76:
	popq	%rbp
.LCFI27:
	.cfi_def_cfa_offset 40
	popq	%r12
.LCFI28:
	.cfi_def_cfa_offset 32
	popq	%r13
.LCFI29:
	.cfi_def_cfa_offset 24
	popq	%r14
.LCFI30:
	.cfi_def_cfa_offset 16
.LVL77:
	popq	%r15
.LCFI31:
	.cfi_def_cfa_offset 8
	ret
.LVL78:
.L32:
.LCFI32:
	.cfi_restore_state
	.loc 1 190 0
	movl	$.LC9, %edi
	call	puts
.LVL79:
	jmp	.L23
	.cfi_endproc
.LFE53:
	.size	write_to_csv, .-write_to_csv
	.section	.rodata.str1.1
.LC15:
	.string	"Error: unable to open %s: %s\n"
.LC16:
	.string	"%*[^0-9]%llu"
.LC17:
	.string	"A match found\n."
.LC18:
	.string	"\n%s\n"
	.text
	.p2align 4,,15
	.globl	search_in_file
	.type	search_in_file, @function
search_in_file:
.LFB54:
	.loc 1 222 0
	.cfi_startproc
.LVL80:
	pushq	%r13
.LCFI33:
	.cfi_def_cfa_offset 16
	.cfi_offset 13, -16
	movq	%rdi, %r13
	pushq	%r12
.LCFI34:
	.cfi_def_cfa_offset 24
	.cfi_offset 12, -24
	movl	%edx, %r12d
	pushq	%rbp
.LCFI35:
	.cfi_def_cfa_offset 32
	.cfi_offset 6, -32
	movq	%rsi, %rbp
	.loc 1 227 0
	movl	$.LC0, %esi
.LVL81:
	.loc 1 222 0
	pushq	%rbx
.LCFI36:
	.cfi_def_cfa_offset 40
	.cfi_offset 3, -40
	subq	$536, %rsp
.LCFI37:
	.cfi_def_cfa_offset 576
	.loc 1 227 0
	call	fopen
.LVL82:
	testq	%rax, %rax
	movq	%rax, %rbx
.LVL83:
	je	.L48
.LVL84:
	.p2align 4,,10
	.p2align 3
.L46:
	.loc 1 233 0 discriminator 1
	leaq	16(%rsp), %rdi
	movq	%rbx, %rdx
	movl	$512, %esi
	call	fgets
.LVL85:
	testq	%rax, %rax
	je	.L49
	.loc 1 234 0
	leaq	16(%rsp), %rdi
	movq	%rbp, %rsi
	call	strstr
.LVL86:
	testq	%rax, %rax
	je	.L46
	.loc 1 235 0
	testl	%r12d, %r12d
	jne	.L50
	.loc 1 242 0
	movl	$.LC17, %edi
	xorl	%eax, %eax
	call	printf
.LVL87:
	.loc 1 243 0
	leaq	16(%rsp), %rsi
	movl	$.LC18, %edi
	xorl	%eax, %eax
	call	printf
.LVL88:
	jmp	.L46
	.p2align 4,,10
	.p2align 3
.L49:
	.loc 1 250 0
	movq	%rbx, %rdi
	.loc 1 252 0
	xorl	%ebp, %ebp
.LVL89:
	.loc 1 250 0
	call	fclose
.LVL90:
.L35:
	.loc 1 253 0
	addq	$536, %rsp
.LCFI38:
	.cfi_remember_state
	.cfi_def_cfa_offset 40
	movq	%rbp, %rax
	popq	%rbx
.LCFI39:
	.cfi_def_cfa_offset 32
.LVL91:
	popq	%rbp
.LCFI40:
	.cfi_def_cfa_offset 24
	popq	%r12
.LCFI41:
	.cfi_def_cfa_offset 16
.LVL92:
	popq	%r13
.LCFI42:
	.cfi_def_cfa_offset 8
.LVL93:
	ret
.LVL94:
.L48:
.LCFI43:
	.cfi_restore_state
	.loc 1 228 0
	call	__errno_location
.LVL95:
	movl	(%rax), %edi
	.loc 1 229 0
	movq	$-1, %rbp
.LVL96:
	.loc 1 228 0
	call	strerror
.LVL97:
	movq	%r13, %rsi
	movq	%rax, %rdx
	movl	$.LC15, %edi
	xorl	%eax, %eax
	call	printf
.LVL98:
	jmp	.L35
.LVL99:
.L50:
.LBB9:
.LBB10:
.LBB11:
	.loc 1 318 0
	leaq	16(%rsp), %rdi
.LVL100:
	leaq	8(%rsp), %rdx
	movl	$.LC16, %esi
	xorl	%eax, %eax
	.loc 1 317 0
	movq	$-1, 8(%rsp)
.LVL101:
	.loc 1 318 0
	call	__isoc99_sscanf
.LVL102:
.LBE11:
.LBE10:
	.loc 1 238 0
	movq	%rbx, %rdi
.LBB13:
.LBB12:
	.loc 1 320 0
	movq	8(%rsp), %rbp
.LVL103:
.LBE12:
.LBE13:
	.loc 1 238 0
	call	fclose
.LVL104:
	jmp	.L35
.LBE9:
	.cfi_endproc
.LFE54:
	.size	search_in_file, .-search_in_file
	.p2align 4,,15
	.globl	search_in_string
	.type	search_in_string, @function
search_in_string:
.LFB55:
	.loc 1 255 0
	.cfi_startproc
.LVL105:
	pushq	%rbx
.LCFI44:
	.cfi_def_cfa_offset 16
	.cfi_offset 3, -16
	movl	%edx, %ebx
	subq	$48, %rsp
.LCFI45:
	.cfi_def_cfa_offset 64
	.loc 1 259 0
	call	strstr
.LVL106:
	testq	%rax, %rax
	je	.L54
.LVL107:
	.loc 1 261 0
	testl	%ebx, %ebx
	jne	.L56
	.loc 1 267 0
	movl	$.LC17, %edi
	xorl	%eax, %eax
.LVL108:
	call	printf
.LVL109:
	.loc 1 272 0
	addq	$48, %rsp
.LCFI46:
	.cfi_remember_state
	.cfi_def_cfa_offset 16
	.loc 1 271 0
	xorl	%eax, %eax
	.loc 1 272 0
	popq	%rbx
.LCFI47:
	.cfi_def_cfa_offset 8
.LVL110:
	ret
.LVL111:
	.p2align 4,,10
	.p2align 3
.L56:
.LCFI48:
	.cfi_restore_state
.LBB17:
	.loc 1 263 0
	movq	(%rax), %rdx
.LBB18:
.LBB19:
	.loc 1 318 0
	leaq	16(%rsp), %rdi
	movl	$.LC16, %esi
	.loc 1 317 0
	movq	$-1, 8(%rsp)
.LVL112:
.LBE19:
.LBE18:
	.loc 1 263 0
	movq	%rdx, 16(%rsp)
	movq	8(%rax), %rdx
	movq	%rdx, 24(%rsp)
	movq	16(%rax), %rdx
	movq	%rdx, 32(%rsp)
	movl	24(%rax), %edx
	movzwl	28(%rax), %eax
.LVL113:
	movl	%edx, 40(%rsp)
.LBB22:
.LBB20:
	.loc 1 318 0
	leaq	8(%rsp), %rdx
.LBE20:
.LBE22:
	.loc 1 263 0
	movw	%ax, 44(%rsp)
.LVL114:
.LBB23:
.LBB21:
	.loc 1 318 0
	xorl	%eax, %eax
	call	__isoc99_sscanf
.LVL115:
	.loc 1 320 0
	movq	8(%rsp), %rax
.LBE21:
.LBE23:
.LBE17:
	.loc 1 272 0
	addq	$48, %rsp
.LCFI49:
	.cfi_remember_state
	.cfi_def_cfa_offset 16
	popq	%rbx
.LCFI50:
	.cfi_def_cfa_offset 8
.LVL116:
	ret
.LVL117:
	.p2align 4,,10
	.p2align 3
.L54:
.LCFI51:
	.cfi_restore_state
	addq	$48, %rsp
.LCFI52:
	.cfi_def_cfa_offset 16
	.loc 1 271 0
	xorl	%eax, %eax
	.loc 1 272 0
	popq	%rbx
.LCFI53:
	.cfi_def_cfa_offset 8
.LVL118:
	ret
	.cfi_endproc
.LFE55:
	.size	search_in_string, .-search_in_string
	.section	.rodata.str1.8
	.align 8
.LC19:
	.string	"Memory error - strlen(result)==%lu, file size==%d\n"
	.text
	.p2align 4,,15
	.globl	file_to_string
	.type	file_to_string, @function
file_to_string:
.LFB56:
	.loc 1 277 0
	.cfi_startproc
.LVL119:
	pushq	%rbx
.LCFI54:
	.cfi_def_cfa_offset 16
	.cfi_offset 3, -16
	.loc 1 281 0
	xorl	%eax, %eax
	.loc 1 286 0
	movl	$.LC0, %esi
	.loc 1 277 0
	subq	$512, %rsp
.LCFI55:
	.cfi_def_cfa_offset 528
	.loc 1 281 0
	movl	cycle(%rip), %edx
	addl	$1, %edx
	cmpl	$8, %edx
	cmovne	%edx, %eax
	movl	%eax, cycle(%rip)
	.loc 1 286 0
	call	fopen
.LVL120:
	testq	%rax, %rax
	movq	%rax, %rbx
.LVL121:
	je	.L66
	.loc 1 291 0
	movslq	cycle(%rip), %rax
.LVL122:
	leaq	(%rax,%rax,4), %rax
	salq	$13, %rax
	movb	$0, result(%rax)
	.loc 1 294 0
	jmp	.L61
	.p2align 4,,10
	.p2align 3
.L62:
	.loc 1 295 0
	movslq	cycle(%rip), %rcx
	movq	%rsp, %rsi
	leaq	(%rcx,%rcx,4), %rcx
	salq	$13, %rcx
	leaq	result(%rcx), %rdi
	call	strcat
.LVL123:
.L61:
	.loc 1 294 0 discriminator 1
	movq	%rbx, %rdx
	movl	$512, %esi
	movq	%rsp, %rdi
	call	fgets
.LVL124:
	testq	%rax, %rax
	jne	.L62
	.loc 1 299 0
	movslq	cycle(%rip), %rax
	leaq	(%rax,%rax,4), %rax
	salq	$13, %rax
	leaq	result(%rax), %rcx
	movq	%rcx, %rsi
.L63:
	movl	(%rsi), %edx
	addq	$4, %rsi
	leal	-16843009(%rdx), %eax
	notl	%edx
	andl	%edx, %eax
	andl	$-2139062144, %eax
	je	.L63
	movl	%eax, %edx
	shrl	$16, %edx
	testl	$32896, %eax
	cmove	%edx, %eax
	leaq	2(%rsi), %rdx
	cmove	%rdx, %rsi
	addb	%al, %al
	sbbq	$3, %rsi
	subq	%rcx, %rsi
	cmpq	$40960, %rsi
	ja	.L72
	.loc 1 309 0
	movq	%rbx, %rdi
	call	fclose
.LVL125:
	.loc 1 312 0
	movslq	cycle(%rip), %rax
	.loc 1 313 0
	addq	$512, %rsp
.LCFI56:
	.cfi_remember_state
	.cfi_def_cfa_offset 16
	popq	%rbx
.LCFI57:
	.cfi_def_cfa_offset 8
.LVL126:
	.loc 1 312 0
	leaq	(%rax,%rax,4), %rax
	salq	$13, %rax
	addq	$result, %rax
	.loc 1 313 0
	ret
.LVL127:
	.p2align 4,,10
	.p2align 3
.L66:
.LCFI58:
	.cfi_restore_state
	addq	$512, %rsp
.LCFI59:
	.cfi_remember_state
	.cfi_def_cfa_offset 16
	.loc 1 287 0
	movq	$-1, %rax
.LVL128:
	.loc 1 313 0
	popq	%rbx
.LCFI60:
	.cfi_def_cfa_offset 8
.LVL129:
	ret
.LVL130:
.L72:
.LCFI61:
	.cfi_restore_state
	.loc 1 300 0
	movl	$8192, %edx
	movl	$.LC19, %edi
	xorl	%eax, %eax
	call	printf
.LVL131:
	.loc 1 302 0
	movq	%rbx, %rdi
	call	fclose
.LVL132:
	.loc 1 304 0
	movl	$1, %edi
	call	exit
.LVL133:
	.cfi_endproc
.LFE56:
	.size	file_to_string, .-file_to_string
	.p2align 4,,15
	.globl	find_num_in_str
	.type	find_num_in_str, @function
find_num_in_str:
.LFB57:
	.loc 1 316 0
	.cfi_startproc
.LVL134:
	subq	$24, %rsp
.LCFI62:
	.cfi_def_cfa_offset 32
	.loc 1 318 0
	movl	$.LC16, %esi
	xorl	%eax, %eax
	leaq	8(%rsp), %rdx
	.loc 1 317 0
	movq	$-1, 8(%rsp)
.LVL135:
	.loc 1 318 0
	call	__isoc99_sscanf
.LVL136:
	.loc 1 321 0
	movq	8(%rsp), %rax
	addq	$24, %rsp
.LCFI63:
	.cfi_def_cfa_offset 8
	ret
	.cfi_endproc
.LFE57:
	.size	find_num_in_str, .-find_num_in_str
	.section	.rodata.str1.1
.LC20:
	.string	"/proc/interrupts"
.LC21:
	.string	"LOC:"
	.text
	.p2align 4,,15
	.globl	get_interrupts
	.type	get_interrupts, @function
get_interrupts:
.LFB58:
	.loc 1 324 0
	.cfi_startproc
.LVL137:
	pushq	%rbx
.LCFI64:
	.cfi_def_cfa_offset 16
	.cfi_offset 3, -16
	movq	%rdi, %rbx
	.loc 1 327 0
	movl	$.LC20, %edi
.LVL138:
	.loc 1 324 0
	subq	$48, %rsp
.LCFI65:
	.cfi_def_cfa_offset 64
	.loc 1 327 0
	call	file_to_string
.LVL139:
.LBB31:
.LBB32:
.LBB33:
.LBB34:
	.loc 1 259 0
	movl	$.LC21, %esi
	movq	%rax, %rdi
	call	strstr
.LVL140:
	testq	%rax, %rax
	je	.L77
.LVL141:
.LBB35:
	.loc 1 263 0
	movq	(%rax), %rdx
.LBB36:
.LBB37:
	.loc 1 318 0
	leaq	16(%rsp), %rdi
	movl	$.LC16, %esi
	.loc 1 317 0
	movq	$-1, 8(%rsp)
.LVL142:
.LBE37:
.LBE36:
	.loc 1 263 0
	movq	%rdx, 16(%rsp)
	movq	8(%rax), %rdx
	movq	%rdx, 24(%rsp)
	movq	16(%rax), %rdx
	movq	%rdx, 32(%rsp)
	movl	24(%rax), %edx
	movl	%edx, 40(%rsp)
	movzwl	28(%rax), %eax
.LVL143:
.LBB40:
.LBB38:
	.loc 1 318 0
	leaq	8(%rsp), %rdx
.LBE38:
.LBE40:
	.loc 1 263 0
	movw	%ax, 44(%rsp)
.LVL144:
.LBB41:
.LBB39:
	.loc 1 318 0
	xorl	%eax, %eax
	call	__isoc99_sscanf
.LVL145:
	.loc 1 320 0
	movq	8(%rsp), %rax
.LBE39:
.LBE41:
	.loc 1 331 0
	movq	%rax, 152(%rbx)
.LBE35:
.LBE34:
.LBE33:
.LBE32:
.LBE31:
	.loc 1 332 0
	addq	$48, %rsp
.LCFI66:
	.cfi_remember_state
	.cfi_def_cfa_offset 16
	movq	%rbx, %rax
	popq	%rbx
.LCFI67:
	.cfi_def_cfa_offset 8
.LVL146:
	ret
.LVL147:
	.p2align 4,,10
	.p2align 3
.L77:
.LCFI68:
	.cfi_restore_state
.LBB46:
.LBB45:
.LBB44:
.LBB43:
	.loc 1 271 0
	xorl	%eax, %eax
.LBB42:
	.loc 1 331 0
	movq	%rax, 152(%rbx)
.LBE42:
.LBE43:
.LBE44:
.LBE45:
.LBE46:
	.loc 1 332 0
	addq	$48, %rsp
.LCFI69:
	.cfi_def_cfa_offset 16
	movq	%rbx, %rax
	popq	%rbx
.LCFI70:
	.cfi_def_cfa_offset 8
.LVL148:
	ret
	.cfi_endproc
.LFE58:
	.size	get_interrupts, .-get_interrupts
	.p2align 4,,15
	.globl	get_interrupts_from_string
	.type	get_interrupts_from_string, @function
get_interrupts_from_string:
.LFB59:
	.loc 1 336 0
	.cfi_startproc
.LVL149:
	pushq	%rbx
.LCFI71:
	.cfi_def_cfa_offset 16
	.cfi_offset 3, -16
	movq	%rdi, %rbx
	movq	%rsi, %rdi
.LVL150:
.LBB52:
.LBB53:
	.loc 1 259 0
	movl	$.LC21, %esi
.LVL151:
.LBE53:
.LBE52:
	.loc 1 336 0
	subq	$48, %rsp
.LCFI72:
	.cfi_def_cfa_offset 64
.LBB64:
.LBB62:
	.loc 1 259 0
	call	strstr
.LVL152:
	testq	%rax, %rax
	je	.L81
.LVL153:
.LBB54:
	.loc 1 263 0
	movq	(%rax), %rdx
.LBB55:
.LBB56:
	.loc 1 318 0
	leaq	16(%rsp), %rdi
	movl	$.LC16, %esi
	.loc 1 317 0
	movq	$-1, 8(%rsp)
.LVL154:
.LBE56:
.LBE55:
	.loc 1 263 0
	movq	%rdx, 16(%rsp)
	movq	8(%rax), %rdx
	movq	%rdx, 24(%rsp)
	movq	16(%rax), %rdx
	movq	%rdx, 32(%rsp)
	movl	24(%rax), %edx
	movzwl	28(%rax), %eax
.LVL155:
	movl	%edx, 40(%rsp)
.LBB59:
.LBB57:
	.loc 1 318 0
	leaq	8(%rsp), %rdx
.LBE57:
.LBE59:
	.loc 1 263 0
	movw	%ax, 44(%rsp)
.LVL156:
.LBB60:
.LBB58:
	.loc 1 318 0
	xorl	%eax, %eax
	call	__isoc99_sscanf
.LVL157:
	.loc 1 320 0
	movq	8(%rsp), %rax
.LBE58:
.LBE60:
	.loc 1 341 0
	movq	%rax, 152(%rbx)
.LBE54:
.LBE62:
.LBE64:
	.loc 1 342 0
	addq	$48, %rsp
.LCFI73:
	.cfi_remember_state
	.cfi_def_cfa_offset 16
	movq	%rbx, %rax
	popq	%rbx
.LCFI74:
	.cfi_def_cfa_offset 8
.LVL158:
	ret
.LVL159:
	.p2align 4,,10
	.p2align 3
.L81:
.LCFI75:
	.cfi_restore_state
.LBB65:
.LBB63:
	.loc 1 271 0
	xorl	%eax, %eax
.LBB61:
	.loc 1 341 0
	movq	%rax, 152(%rbx)
.LBE61:
.LBE63:
.LBE65:
	.loc 1 342 0
	addq	$48, %rsp
.LCFI76:
	.cfi_def_cfa_offset 16
	movq	%rbx, %rax
	popq	%rbx
.LCFI77:
	.cfi_def_cfa_offset 8
.LVL160:
	ret
	.cfi_endproc
.LFE59:
	.size	get_interrupts_from_string, .-get_interrupts_from_string
	.section	.rodata.str1.8
	.align 8
.LC22:
	.string	"Error: unable to open /proc/interrupts: %s\n"
	.section	.rodata.str1.1
.LC23:
	.string	"%d"
	.text
	.p2align 4,,15
	.globl	get_interrupts_sum
	.type	get_interrupts_sum, @function
get_interrupts_sum:
.LFB60:
	.loc 1 345 0
	.cfi_startproc
.LVL161:
	pushq	%r12
.LCFI78:
	.cfi_def_cfa_offset 16
	.cfi_offset 12, -16
	.loc 1 352 0
	movl	$.LC0, %esi
	.loc 1 345 0
	pushq	%rbp
.LCFI79:
	.cfi_def_cfa_offset 24
	.cfi_offset 6, -24
	pushq	%rbx
.LCFI80:
	.cfi_def_cfa_offset 32
	.cfi_offset 3, -32
	.loc 1 352 0
	xorl	%ebx, %ebx
	.loc 1 345 0
	subq	$528, %rsp
.LCFI81:
	.cfi_def_cfa_offset 560
	.loc 1 347 0
	movl	$0, (%rsp)
.LVL162:
	.loc 1 359 0
	leaq	21(%rsp), %r12
	.loc 1 352 0
	call	fopen
.LVL163:
	testq	%rax, %rax
	movq	%rax, %rbp
.LVL164:
	je	.L94
.LVL165:
	.p2align 4,,10
	.p2align 3
.L92:
	.loc 1 357 0 discriminator 1
	leaq	16(%rsp), %rdi
	movq	%rbp, %rdx
	movl	$512, %esi
	call	fgets
.LVL166:
	testq	%rax, %rax
	je	.L95
	.loc 1 359 0
	xorl	%eax, %eax
	movq	%rsp, %rdx
	movl	$.LC23, %esi
	movq	%r12, %rdi
	call	__isoc99_sscanf
.LVL167:
	testl	%eax, %eax
	jle	.L92
	.loc 1 361 0
	movslq	(%rsp), %rcx
.LVL168:
	addq	%rcx, %rbx
.LVL169:
	jmp	.L92
.LVL170:
	.p2align 4,,10
	.p2align 3
.L95:
	.loc 1 368 0
	movq	%rbp, %rdi
	call	fclose
.LVL171:
	.loc 1 371 0
	addq	$528, %rsp
.LCFI82:
	.cfi_remember_state
	.cfi_def_cfa_offset 32
	movq	%rbx, %rax
	popq	%rbx
.LCFI83:
	.cfi_def_cfa_offset 24
.LVL172:
	popq	%rbp
.LCFI84:
	.cfi_def_cfa_offset 16
.LVL173:
	popq	%r12
.LCFI85:
	.cfi_def_cfa_offset 8
	ret
.LVL174:
	.p2align 4,,10
	.p2align 3
.L94:
.LCFI86:
	.cfi_restore_state
	.loc 1 353 0
	call	__errno_location
.LVL175:
	movl	(%rax), %edi
	.loc 1 354 0
	movq	$-1, %rbx
	.loc 1 353 0
	call	strerror
.LVL176:
	movl	$.LC22, %edi
	movq	%rax, %rsi
	xorl	%eax, %eax
	call	printf
.LVL177:
	.loc 1 371 0
	addq	$528, %rsp
.LCFI87:
	.cfi_def_cfa_offset 32
	movq	%rbx, %rax
	popq	%rbx
.LCFI88:
	.cfi_def_cfa_offset 24
	popq	%rbp
.LCFI89:
	.cfi_def_cfa_offset 16
.LVL178:
	popq	%r12
.LCFI90:
	.cfi_def_cfa_offset 8
	ret
	.cfi_endproc
.LFE60:
	.size	get_interrupts_sum, .-get_interrupts_sum
	.p2align 4,,15
	.globl	get_interrupts_sum_in_string
	.type	get_interrupts_sum_in_string, @function
get_interrupts_sum_in_string:
.LFB61:
	.loc 1 374 0
	.cfi_startproc
.LVL179:
	movq	%rbx, -16(%rsp)
	movq	%rbp, -8(%rsp)
	.loc 1 376 0
	movl	$.LC3, %esi
	.loc 1 374 0
	subq	$24, %rsp
.LCFI91:
	.cfi_def_cfa_offset 32
	.cfi_offset 3, -24
	.cfi_offset 6, -16
	.loc 1 374 0
	movq	%rdi, %rbp
	.loc 1 376 0
	movl	$.LC4, %edi
.LVL180:
	call	fopen
.LVL181:
	.loc 1 377 0
	testq	%rax, %rax
	.loc 1 376 0
	movq	%rax, %rbx
.LVL182:
	.loc 1 377 0
	je	.L97
	.loc 1 378 0
	movq	%rbp, %rdi
	movq	%rax, %rsi
	call	fputs
.LVL183:
	.loc 1 380 0
	movq	%rbx, %rdi
	call	fclose
.LVL184:
.L98:
	.loc 1 387 0
	movq	8(%rsp), %rbx
.LVL185:
	movq	16(%rsp), %rbp
.LVL186:
	.loc 1 386 0
	movl	$.LC4, %edi
	.loc 1 387 0
	addq	$24, %rsp
.LCFI92:
	.cfi_remember_state
	.cfi_def_cfa_offset 8
	.loc 1 386 0
	jmp	get_interrupts_sum
.LVL187:
	.p2align 4,,10
	.p2align 3
.L97:
.LCFI93:
	.cfi_restore_state
	.loc 1 383 0
	movl	$.LC5, %edi
	call	puts
.LVL188:
	jmp	.L98
	.cfi_endproc
.LFE61:
	.size	get_interrupts_sum_in_string, .-get_interrupts_sum_in_string
	.local	cycle
	.comm	cycle,4,16
	.local	result
	.comm	result,327680,32
.Letext0:
	.file 2 "/usr/include/x86_64-linux-gnu/bits/types.h"
	.file 3 "/usr/lib/gcc/x86_64-linux-gnu/4.7/include/stddef.h"
	.file 4 "/usr/include/stdio.h"
	.file 5 "/usr/include/libio.h"
	.file 6 "file_worker.h"
	.file 7 "<built-in>"
	.file 8 "test_env.h"
	.file 9 "/usr/include/string.h"
	.file 10 "/usr/include/unistd.h"
	.file 11 "/usr/include/x86_64-linux-gnu/bits/errno.h"
	.file 12 "/usr/include/stdlib.h"
	.section	.note.GNU-stack,"",@progbits
